; ModuleID = '21/270.c'
source_filename = "21/270.c"
target datalayout = "e-m:e-p270:32:32-p271:32:32-p272:64:64-i64:64-f80:128-n8:16:32:64-S128"
target triple = "x86_64-pc-linux-gnu"

@.str = private unnamed_addr constant [3 x i8] c"%d\00", align 1
@.str.1 = private unnamed_addr constant [6 x i8] c"%d,%d\00", align 1

; Function Attrs: noinline nounwind uwtable
define dso_local void @main() #0 {
  %1 = alloca i32, align 4
  %2 = alloca i32, align 4
  %3 = alloca i32, align 4
  %4 = alloca i32, align 4
  %5 = alloca [300 x i32], align 16
  %6 = alloca float, align 4
  %7 = alloca float, align 4
  %8 = alloca float, align 4
  store float 0.000000e+00, float* %6, align 4
  store float 0.000000e+00, float* %7, align 4
  store float 0.000000e+00, float* %8, align 4
  %9 = call i32 (i8*, ...) @__isoc99_scanf(i8* getelementptr inbounds ([3 x i8], [3 x i8]* @.str, i64 0, i64 0), i32* %1)
  store i32 0, i32* %2, align 4
  br label %10

10:                                               ; preds = %26, %0
  %11 = load i32, i32* %2, align 4
  %12 = load i32, i32* %1, align 4
  %13 = icmp slt i32 %11, %12
  br i1 %13, label %14, label %29

14:                                               ; preds = %10
  %15 = load i32, i32* %2, align 4
  %16 = sext i32 %15 to i64
  %17 = getelementptr inbounds [300 x i32], [300 x i32]* %5, i64 0, i64 %16
  %18 = call i32 (i8*, ...) @__isoc99_scanf(i8* getelementptr inbounds ([3 x i8], [3 x i8]* @.str, i64 0, i64 0), i32* %17)
  %19 = load float, float* %6, align 4
  %20 = load i32, i32* %2, align 4
  %21 = sext i32 %20 to i64
  %22 = getelementptr inbounds [300 x i32], [300 x i32]* %5, i64 0, i64 %21
  %23 = load i32, i32* %22, align 4
  %24 = sitofp i32 %23 to float
  %25 = fadd float %19, %24
  store float %25, float* %6, align 4
  br label %26

26:                                               ; preds = %14
  %27 = load i32, i32* %2, align 4
  %28 = add nsw i32 %27, 1
  store i32 %28, i32* %2, align 4
  br label %10

29:                                               ; preds = %10
  %30 = load float, float* %6, align 4
  store float %30, float* %6, align 4
  %31 = load float, float* %6, align 4
  %32 = load i32, i32* %1, align 4
  %33 = sitofp i32 %32 to float
  %34 = fdiv float %31, %33
  store float %34, float* %6, align 4
  store i32 0, i32* %2, align 4
  br label %35

35:                                               ; preds = %89, %29
  %36 = load i32, i32* %2, align 4
  %37 = load i32, i32* %1, align 4
  %38 = icmp slt i32 %36, %37
  br i1 %38, label %39, label %92

39:                                               ; preds = %35
  %40 = load i32, i32* %2, align 4
  %41 = sext i32 %40 to i64
  %42 = getelementptr inbounds [300 x i32], [300 x i32]* %5, i64 0, i64 %41
  %43 = load i32, i32* %42, align 4
  %44 = sitofp i32 %43 to float
  %45 = load float, float* %6, align 4
  %46 = fsub float %44, %45
  %47 = fcmp oge float %46, 0.000000e+00
  br i1 %47, label %48, label %68

48:                                               ; preds = %39
  %49 = load i32, i32* %2, align 4
  %50 = sext i32 %49 to i64
  %51 = getelementptr inbounds [300 x i32], [300 x i32]* %5, i64 0, i64 %50
  %52 = load i32, i32* %51, align 4
  %53 = sitofp i32 %52 to float
  %54 = load float, float* %6, align 4
  %55 = fsub float %53, %54
  %56 = load float, float* %8, align 4
  %57 = fcmp ogt float %55, %56
  br i1 %57, label %58, label %67

58:                                               ; preds = %48
  %59 = load i32, i32* %2, align 4
  %60 = sext i32 %59 to i64
  %61 = getelementptr inbounds [300 x i32], [300 x i32]* %5, i64 0, i64 %60
  %62 = load i32, i32* %61, align 4
  %63 = sitofp i32 %62 to float
  %64 = load float, float* %6, align 4
  %65 = fsub float %63, %64
  store float %65, float* %8, align 4
  %66 = load i32, i32* %2, align 4
  store i32 %66, i32* %3, align 4
  br label %67

67:                                               ; preds = %58, %48
  br label %88

68:                                               ; preds = %39
  %69 = load float, float* %6, align 4
  %70 = load i32, i32* %2, align 4
  %71 = sext i32 %70 to i64
  %72 = getelementptr inbounds [300 x i32], [300 x i32]* %5, i64 0, i64 %71
  %73 = load i32, i32* %72, align 4
  %74 = sitofp i32 %73 to float
  %75 = fsub float %69, %74
  %76 = load float, float* %7, align 4
  %77 = fcmp ogt float %75, %76
  br i1 %77, label %78, label %87

78:                                               ; preds = %68
  %79 = load float, float* %6, align 4
  %80 = load i32, i32* %2, align 4
  %81 = sext i32 %80 to i64
  %82 = getelementptr inbounds [300 x i32], [300 x i32]* %5, i64 0, i64 %81
  %83 = load i32, i32* %82, align 4
  %84 = sitofp i32 %83 to float
  %85 = fsub float %79, %84
  store float %85, float* %7, align 4
  %86 = load i32, i32* %2, align 4
  store i32 %86, i32* %4, align 4
  br label %87

87:                                               ; preds = %78, %68
  br label %88

88:                                               ; preds = %87, %67
  br label %89

89:                                               ; preds = %88
  %90 = load i32, i32* %2, align 4
  %91 = add nsw i32 %90, 1
  store i32 %91, i32* %2, align 4
  br label %35

92:                                               ; preds = %35
  %93 = load float, float* %8, align 4
  %94 = load float, float* %7, align 4
  %95 = fcmp ogt float %93, %94
  br i1 %95, label %96, label %102

96:                                               ; preds = %92
  %97 = load i32, i32* %3, align 4
  %98 = sext i32 %97 to i64
  %99 = getelementptr inbounds [300 x i32], [300 x i32]* %5, i64 0, i64 %98
  %100 = load i32, i32* %99, align 4
  %101 = call i32 (i8*, ...) @printf(i8* getelementptr inbounds ([3 x i8], [3 x i8]* @.str, i64 0, i64 0), i32 %100)
  br label %123

102:                                              ; preds = %92
  %103 = load float, float* %8, align 4
  %104 = load float, float* %7, align 4
  %105 = fcmp olt float %103, %104
  br i1 %105, label %106, label %112

106:                                              ; preds = %102
  %107 = load i32, i32* %4, align 4
  %108 = sext i32 %107 to i64
  %109 = getelementptr inbounds [300 x i32], [300 x i32]* %5, i64 0, i64 %108
  %110 = load i32, i32* %109, align 4
  %111 = call i32 (i8*, ...) @printf(i8* getelementptr inbounds ([3 x i8], [3 x i8]* @.str, i64 0, i64 0), i32 %110)
  br label %122

112:                                              ; preds = %102
  %113 = load i32, i32* %4, align 4
  %114 = sext i32 %113 to i64
  %115 = getelementptr inbounds [300 x i32], [300 x i32]* %5, i64 0, i64 %114
  %116 = load i32, i32* %115, align 4
  %117 = load i32, i32* %3, align 4
  %118 = sext i32 %117 to i64
  %119 = getelementptr inbounds [300 x i32], [300 x i32]* %5, i64 0, i64 %118
  %120 = load i32, i32* %119, align 4
  %121 = call i32 (i8*, ...) @printf(i8* getelementptr inbounds ([6 x i8], [6 x i8]* @.str.1, i64 0, i64 0), i32 %116, i32 %120)
  br label %122

122:                                              ; preds = %112, %106
  br label %123

123:                                              ; preds = %122, %96
  ret void
}

declare dso_local i32 @__isoc99_scanf(i8*, ...) #1

declare dso_local i32 @printf(i8*, ...) #1


!llvm.module.flags = !{!0}
!llvm.ident = !{!1}

!0 = !{i32 1, !"wchar_size", i32 4}
!1 = !{!"clang version 10.0.0-4ubuntu1 "}
